	.text
	.file	"modify_field_6_constant.c"
	.globl	modifyType16Array               # -- Begin function modifyType16Array
	.p2align	4, 0x90
	.type	modifyType16Array,@function
modifyType16Array:                      # @modifyType16Array
	.cfi_startproc
# %bb.0:                                # %entry
	pushq	%r14
	.cfi_def_cfa_offset 16
	pushq	%rbx
	.cfi_def_cfa_offset 24
	subq	$168, %rsp
	.cfi_def_cfa_offset 192
	.cfi_offset %rbx, -24
	.cfi_offset %r14, -16
	movabsq	$7234304265016340301, %r14      # imm = 0x6465696669646F4D
	movq	%r14, (%rsp)
	movl	$3551588, 7(%rsp)               # imm = 0x363164
	leaq	.L.str.1(%rip), %rbx
	movq	%rsp, %rsi
	movq	%rbx, %rdi
	xorl	%eax, %eax
	callq	printf@PLT
	leaq	16(%rsp), %rsi
	movq	%r14, 16(%rsp)
	movl	$3551588, 23(%rsp)              # imm = 0x363164
	movq	%rbx, %rdi
	xorl	%eax, %eax
	callq	printf@PLT
	leaq	32(%rsp), %rsi
	movq	%r14, 32(%rsp)
	movl	$3551588, 39(%rsp)              # imm = 0x363164
	movq	%rbx, %rdi
	xorl	%eax, %eax
	callq	printf@PLT
	leaq	48(%rsp), %rsi
	movq	%r14, 48(%rsp)
	movl	$3551588, 55(%rsp)              # imm = 0x363164
	movq	%rbx, %rdi
	xorl	%eax, %eax
	callq	printf@PLT
	leaq	64(%rsp), %rsi
	movq	%r14, 64(%rsp)
	movl	$3551588, 71(%rsp)              # imm = 0x363164
	movq	%rbx, %rdi
	xorl	%eax, %eax
	callq	printf@PLT
	leaq	80(%rsp), %rsi
	movq	%r14, 80(%rsp)
	movl	$3551588, 87(%rsp)              # imm = 0x363164
	movq	%rbx, %rdi
	xorl	%eax, %eax
	callq	printf@PLT
	leaq	96(%rsp), %rsi
	movq	%r14, 96(%rsp)
	movl	$3551588, 103(%rsp)             # imm = 0x363164
	movq	%rbx, %rdi
	xorl	%eax, %eax
	callq	printf@PLT
	leaq	112(%rsp), %rsi
	movq	%r14, 112(%rsp)
	movl	$3551588, 119(%rsp)             # imm = 0x363164
	movq	%rbx, %rdi
	xorl	%eax, %eax
	callq	printf@PLT
	leaq	128(%rsp), %rsi
	movq	%r14, 128(%rsp)
	movl	$3551588, 135(%rsp)             # imm = 0x363164
	movq	%rbx, %rdi
	xorl	%eax, %eax
	callq	printf@PLT
	leaq	144(%rsp), %rsi
	movq	%r14, 144(%rsp)
	movl	$3551588, 151(%rsp)             # imm = 0x363164
	movq	%rbx, %rdi
	xorl	%eax, %eax
	callq	printf@PLT
	addq	$168, %rsp
	.cfi_def_cfa_offset 24
	popq	%rbx
	.cfi_def_cfa_offset 16
	popq	%r14
	.cfi_def_cfa_offset 8
	retq
.Lfunc_end0:
	.size	modifyType16Array, .Lfunc_end0-modifyType16Array
	.cfi_endproc
                                        # -- End function
	.globl	modifyType24Array               # -- Begin function modifyType24Array
	.p2align	4, 0x90
	.type	modifyType24Array,@function
modifyType24Array:                      # @modifyType24Array
	.cfi_startproc
# %bb.0:                                # %entry
	pushq	%r14
	.cfi_def_cfa_offset 16
	pushq	%rbx
	.cfi_def_cfa_offset 24
	subq	$248, %rsp
	.cfi_def_cfa_offset 272
	.cfi_offset %rbx, -24
	.cfi_offset %r14, -16
	movabsq	$7234304265016340301, %r14      # imm = 0x6465696669646F4D
	movq	%r14, (%rsp)
	movl	$3420772, 7(%rsp)               # imm = 0x343264
	leaq	.L.str.1(%rip), %rbx
	movq	%rsp, %rsi
	movq	%rbx, %rdi
	xorl	%eax, %eax
	callq	printf@PLT
	leaq	24(%rsp), %rsi
	movq	%r14, 24(%rsp)
	movl	$3420772, 31(%rsp)              # imm = 0x343264
	movq	%rbx, %rdi
	xorl	%eax, %eax
	callq	printf@PLT
	leaq	48(%rsp), %rsi
	movq	%r14, 48(%rsp)
	movl	$3420772, 55(%rsp)              # imm = 0x343264
	movq	%rbx, %rdi
	xorl	%eax, %eax
	callq	printf@PLT
	leaq	72(%rsp), %rsi
	movq	%r14, 72(%rsp)
	movl	$3420772, 79(%rsp)              # imm = 0x343264
	movq	%rbx, %rdi
	xorl	%eax, %eax
	callq	printf@PLT
	leaq	96(%rsp), %rsi
	movq	%r14, 96(%rsp)
	movl	$3420772, 103(%rsp)             # imm = 0x343264
	movq	%rbx, %rdi
	xorl	%eax, %eax
	callq	printf@PLT
	leaq	120(%rsp), %rsi
	movq	%r14, 120(%rsp)
	movl	$3420772, 127(%rsp)             # imm = 0x343264
	movq	%rbx, %rdi
	xorl	%eax, %eax
	callq	printf@PLT
	leaq	144(%rsp), %rsi
	movq	%r14, 144(%rsp)
	movl	$3420772, 151(%rsp)             # imm = 0x343264
	movq	%rbx, %rdi
	xorl	%eax, %eax
	callq	printf@PLT
	leaq	168(%rsp), %rsi
	movq	%r14, 168(%rsp)
	movl	$3420772, 175(%rsp)             # imm = 0x343264
	movq	%rbx, %rdi
	xorl	%eax, %eax
	callq	printf@PLT
	leaq	192(%rsp), %rsi
	movq	%r14, 192(%rsp)
	movl	$3420772, 199(%rsp)             # imm = 0x343264
	movq	%rbx, %rdi
	xorl	%eax, %eax
	callq	printf@PLT
	leaq	216(%rsp), %rsi
	movq	%r14, 216(%rsp)
	movl	$3420772, 223(%rsp)             # imm = 0x343264
	movq	%rbx, %rdi
	xorl	%eax, %eax
	callq	printf@PLT
	addq	$248, %rsp
	.cfi_def_cfa_offset 24
	popq	%rbx
	.cfi_def_cfa_offset 16
	popq	%r14
	.cfi_def_cfa_offset 8
	retq
.Lfunc_end1:
	.size	modifyType24Array, .Lfunc_end1-modifyType24Array
	.cfi_endproc
                                        # -- End function
	.globl	modifyType32Array               # -- Begin function modifyType32Array
	.p2align	4, 0x90
	.type	modifyType32Array,@function
modifyType32Array:                      # @modifyType32Array
	.cfi_startproc
# %bb.0:                                # %entry
	pushq	%r14
	.cfi_def_cfa_offset 16
	pushq	%rbx
	.cfi_def_cfa_offset 24
	subq	$328, %rsp                      # imm = 0x148
	.cfi_def_cfa_offset 352
	.cfi_offset %rbx, -24
	.cfi_offset %r14, -16
	movabsq	$7234304265016340301, %r14      # imm = 0x6465696669646F4D
	movq	%r14, (%rsp)
	movl	$3289956, 7(%rsp)               # imm = 0x323364
	leaq	.L.str.1(%rip), %rbx
	movq	%rsp, %rsi
	movq	%rbx, %rdi
	xorl	%eax, %eax
	callq	printf@PLT
	leaq	32(%rsp), %rsi
	movq	%r14, 32(%rsp)
	movl	$3289956, 39(%rsp)              # imm = 0x323364
	movq	%rbx, %rdi
	xorl	%eax, %eax
	callq	printf@PLT
	leaq	64(%rsp), %rsi
	movq	%r14, 64(%rsp)
	movl	$3289956, 71(%rsp)              # imm = 0x323364
	movq	%rbx, %rdi
	xorl	%eax, %eax
	callq	printf@PLT
	leaq	96(%rsp), %rsi
	movq	%r14, 96(%rsp)
	movl	$3289956, 103(%rsp)             # imm = 0x323364
	movq	%rbx, %rdi
	xorl	%eax, %eax
	callq	printf@PLT
	leaq	128(%rsp), %rsi
	movq	%r14, 128(%rsp)
	movl	$3289956, 135(%rsp)             # imm = 0x323364
	movq	%rbx, %rdi
	xorl	%eax, %eax
	callq	printf@PLT
	leaq	160(%rsp), %rsi
	movq	%r14, 160(%rsp)
	movl	$3289956, 167(%rsp)             # imm = 0x323364
	movq	%rbx, %rdi
	xorl	%eax, %eax
	callq	printf@PLT
	leaq	192(%rsp), %rsi
	movq	%r14, 192(%rsp)
	movl	$3289956, 199(%rsp)             # imm = 0x323364
	movq	%rbx, %rdi
	xorl	%eax, %eax
	callq	printf@PLT
	leaq	224(%rsp), %rsi
	movq	%r14, 224(%rsp)
	movl	$3289956, 231(%rsp)             # imm = 0x323364
	movq	%rbx, %rdi
	xorl	%eax, %eax
	callq	printf@PLT
	leaq	256(%rsp), %rsi
	movq	%r14, 256(%rsp)
	movl	$3289956, 263(%rsp)             # imm = 0x323364
	movq	%rbx, %rdi
	xorl	%eax, %eax
	callq	printf@PLT
	leaq	288(%rsp), %rsi
	movq	%r14, 288(%rsp)
	movl	$3289956, 295(%rsp)             # imm = 0x323364
	movq	%rbx, %rdi
	xorl	%eax, %eax
	callq	printf@PLT
	addq	$328, %rsp                      # imm = 0x148
	.cfi_def_cfa_offset 24
	popq	%rbx
	.cfi_def_cfa_offset 16
	popq	%r14
	.cfi_def_cfa_offset 8
	retq
.Lfunc_end2:
	.size	modifyType32Array, .Lfunc_end2-modifyType32Array
	.cfi_endproc
                                        # -- End function
	.globl	modifyType40Array               # -- Begin function modifyType40Array
	.p2align	4, 0x90
	.type	modifyType40Array,@function
modifyType40Array:                      # @modifyType40Array
	.cfi_startproc
# %bb.0:                                # %entry
	pushq	%r14
	.cfi_def_cfa_offset 16
	pushq	%rbx
	.cfi_def_cfa_offset 24
	subq	$408, %rsp                      # imm = 0x198
	.cfi_def_cfa_offset 432
	.cfi_offset %rbx, -24
	.cfi_offset %r14, -16
	movabsq	$7234304265016340301, %r14      # imm = 0x6465696669646F4D
	movq	%r14, (%rsp)
	movl	$3159140, 7(%rsp)               # imm = 0x303464
	leaq	.L.str.1(%rip), %rbx
	movq	%rsp, %rsi
	movq	%rbx, %rdi
	xorl	%eax, %eax
	callq	printf@PLT
	leaq	40(%rsp), %rsi
	movq	%r14, 40(%rsp)
	movl	$3159140, 47(%rsp)              # imm = 0x303464
	movq	%rbx, %rdi
	xorl	%eax, %eax
	callq	printf@PLT
	leaq	80(%rsp), %rsi
	movq	%r14, 80(%rsp)
	movl	$3159140, 87(%rsp)              # imm = 0x303464
	movq	%rbx, %rdi
	xorl	%eax, %eax
	callq	printf@PLT
	leaq	120(%rsp), %rsi
	movq	%r14, 120(%rsp)
	movl	$3159140, 127(%rsp)             # imm = 0x303464
	movq	%rbx, %rdi
	xorl	%eax, %eax
	callq	printf@PLT
	leaq	160(%rsp), %rsi
	movq	%r14, 160(%rsp)
	movl	$3159140, 167(%rsp)             # imm = 0x303464
	movq	%rbx, %rdi
	xorl	%eax, %eax
	callq	printf@PLT
	leaq	200(%rsp), %rsi
	movq	%r14, 200(%rsp)
	movl	$3159140, 207(%rsp)             # imm = 0x303464
	movq	%rbx, %rdi
	xorl	%eax, %eax
	callq	printf@PLT
	leaq	240(%rsp), %rsi
	movq	%r14, 240(%rsp)
	movl	$3159140, 247(%rsp)             # imm = 0x303464
	movq	%rbx, %rdi
	xorl	%eax, %eax
	callq	printf@PLT
	leaq	280(%rsp), %rsi
	movq	%r14, 280(%rsp)
	movl	$3159140, 287(%rsp)             # imm = 0x303464
	movq	%rbx, %rdi
	xorl	%eax, %eax
	callq	printf@PLT
	leaq	320(%rsp), %rsi
	movq	%r14, 320(%rsp)
	movl	$3159140, 327(%rsp)             # imm = 0x303464
	movq	%rbx, %rdi
	xorl	%eax, %eax
	callq	printf@PLT
	leaq	360(%rsp), %rsi
	movq	%r14, 360(%rsp)
	movl	$3159140, 367(%rsp)             # imm = 0x303464
	movq	%rbx, %rdi
	xorl	%eax, %eax
	callq	printf@PLT
	addq	$408, %rsp                      # imm = 0x198
	.cfi_def_cfa_offset 24
	popq	%rbx
	.cfi_def_cfa_offset 16
	popq	%r14
	.cfi_def_cfa_offset 8
	retq
.Lfunc_end3:
	.size	modifyType40Array, .Lfunc_end3-modifyType40Array
	.cfi_endproc
                                        # -- End function
	.globl	modifyType48Array               # -- Begin function modifyType48Array
	.p2align	4, 0x90
	.type	modifyType48Array,@function
modifyType48Array:                      # @modifyType48Array
	.cfi_startproc
# %bb.0:                                # %entry
	pushq	%r14
	.cfi_def_cfa_offset 16
	pushq	%rbx
	.cfi_def_cfa_offset 24
	subq	$488, %rsp                      # imm = 0x1E8
	.cfi_def_cfa_offset 512
	.cfi_offset %rbx, -24
	.cfi_offset %r14, -16
	movabsq	$7234304265016340301, %r14      # imm = 0x6465696669646F4D
	movq	%r14, (%rsp)
	movl	$3683428, 7(%rsp)               # imm = 0x383464
	leaq	.L.str.1(%rip), %rbx
	movq	%rsp, %rsi
	movq	%rbx, %rdi
	xorl	%eax, %eax
	callq	printf@PLT
	leaq	48(%rsp), %rsi
	movq	%r14, 48(%rsp)
	movl	$3683428, 55(%rsp)              # imm = 0x383464
	movq	%rbx, %rdi
	xorl	%eax, %eax
	callq	printf@PLT
	leaq	96(%rsp), %rsi
	movq	%r14, 96(%rsp)
	movl	$3683428, 103(%rsp)             # imm = 0x383464
	movq	%rbx, %rdi
	xorl	%eax, %eax
	callq	printf@PLT
	leaq	144(%rsp), %rsi
	movq	%r14, 144(%rsp)
	movl	$3683428, 151(%rsp)             # imm = 0x383464
	movq	%rbx, %rdi
	xorl	%eax, %eax
	callq	printf@PLT
	leaq	192(%rsp), %rsi
	movq	%r14, 192(%rsp)
	movl	$3683428, 199(%rsp)             # imm = 0x383464
	movq	%rbx, %rdi
	xorl	%eax, %eax
	callq	printf@PLT
	leaq	240(%rsp), %rsi
	movq	%r14, 240(%rsp)
	movl	$3683428, 247(%rsp)             # imm = 0x383464
	movq	%rbx, %rdi
	xorl	%eax, %eax
	callq	printf@PLT
	leaq	288(%rsp), %rsi
	movq	%r14, 288(%rsp)
	movl	$3683428, 295(%rsp)             # imm = 0x383464
	movq	%rbx, %rdi
	xorl	%eax, %eax
	callq	printf@PLT
	leaq	336(%rsp), %rsi
	movq	%r14, 336(%rsp)
	movl	$3683428, 343(%rsp)             # imm = 0x383464
	movq	%rbx, %rdi
	xorl	%eax, %eax
	callq	printf@PLT
	leaq	384(%rsp), %rsi
	movq	%r14, 384(%rsp)
	movl	$3683428, 391(%rsp)             # imm = 0x383464
	movq	%rbx, %rdi
	xorl	%eax, %eax
	callq	printf@PLT
	leaq	432(%rsp), %rsi
	movq	%r14, 432(%rsp)
	movl	$3683428, 439(%rsp)             # imm = 0x383464
	movq	%rbx, %rdi
	xorl	%eax, %eax
	callq	printf@PLT
	addq	$488, %rsp                      # imm = 0x1E8
	.cfi_def_cfa_offset 24
	popq	%rbx
	.cfi_def_cfa_offset 16
	popq	%r14
	.cfi_def_cfa_offset 8
	retq
.Lfunc_end4:
	.size	modifyType48Array, .Lfunc_end4-modifyType48Array
	.cfi_endproc
                                        # -- End function
	.globl	modifyType56Array               # -- Begin function modifyType56Array
	.p2align	4, 0x90
	.type	modifyType56Array,@function
modifyType56Array:                      # @modifyType56Array
	.cfi_startproc
# %bb.0:                                # %entry
	pushq	%r14
	.cfi_def_cfa_offset 16
	pushq	%rbx
	.cfi_def_cfa_offset 24
	subq	$568, %rsp                      # imm = 0x238
	.cfi_def_cfa_offset 592
	.cfi_offset %rbx, -24
	.cfi_offset %r14, -16
	movabsq	$7234304265016340301, %r14      # imm = 0x6465696669646F4D
	movq	%r14, (%rsp)
	movl	$3552612, 7(%rsp)               # imm = 0x363564
	leaq	.L.str.1(%rip), %rbx
	movq	%rsp, %rsi
	movq	%rbx, %rdi
	xorl	%eax, %eax
	callq	printf@PLT
	leaq	56(%rsp), %rsi
	movq	%r14, 56(%rsp)
	movl	$3552612, 63(%rsp)              # imm = 0x363564
	movq	%rbx, %rdi
	xorl	%eax, %eax
	callq	printf@PLT
	leaq	112(%rsp), %rsi
	movq	%r14, 112(%rsp)
	movl	$3552612, 119(%rsp)             # imm = 0x363564
	movq	%rbx, %rdi
	xorl	%eax, %eax
	callq	printf@PLT
	leaq	168(%rsp), %rsi
	movq	%r14, 168(%rsp)
	movl	$3552612, 175(%rsp)             # imm = 0x363564
	movq	%rbx, %rdi
	xorl	%eax, %eax
	callq	printf@PLT
	leaq	224(%rsp), %rsi
	movq	%r14, 224(%rsp)
	movl	$3552612, 231(%rsp)             # imm = 0x363564
	movq	%rbx, %rdi
	xorl	%eax, %eax
	callq	printf@PLT
	leaq	280(%rsp), %rsi
	movq	%r14, 280(%rsp)
	movl	$3552612, 287(%rsp)             # imm = 0x363564
	movq	%rbx, %rdi
	xorl	%eax, %eax
	callq	printf@PLT
	leaq	336(%rsp), %rsi
	movq	%r14, 336(%rsp)
	movl	$3552612, 343(%rsp)             # imm = 0x363564
	movq	%rbx, %rdi
	xorl	%eax, %eax
	callq	printf@PLT
	leaq	392(%rsp), %rsi
	movq	%r14, 392(%rsp)
	movl	$3552612, 399(%rsp)             # imm = 0x363564
	movq	%rbx, %rdi
	xorl	%eax, %eax
	callq	printf@PLT
	leaq	448(%rsp), %rsi
	movq	%r14, 448(%rsp)
	movl	$3552612, 455(%rsp)             # imm = 0x363564
	movq	%rbx, %rdi
	xorl	%eax, %eax
	callq	printf@PLT
	leaq	504(%rsp), %rsi
	movq	%r14, 504(%rsp)
	movl	$3552612, 511(%rsp)             # imm = 0x363564
	movq	%rbx, %rdi
	xorl	%eax, %eax
	callq	printf@PLT
	addq	$568, %rsp                      # imm = 0x238
	.cfi_def_cfa_offset 24
	popq	%rbx
	.cfi_def_cfa_offset 16
	popq	%r14
	.cfi_def_cfa_offset 8
	retq
.Lfunc_end5:
	.size	modifyType56Array, .Lfunc_end5-modifyType56Array
	.cfi_endproc
                                        # -- End function
	.globl	main                            # -- Begin function main
	.p2align	4, 0x90
	.type	main,@function
main:                                   # @main
	.cfi_startproc
# %bb.0:                                # %entry
	pushq	%r14
	.cfi_def_cfa_offset 16
	pushq	%rbx
	.cfi_def_cfa_offset 24
	subq	$568, %rsp                      # imm = 0x238
	.cfi_def_cfa_offset 592
	.cfi_offset %rbx, -24
	.cfi_offset %r14, -16
	movabsq	$7234304265016340301, %r14      # imm = 0x6465696669646F4D
	movq	%r14, (%rsp)
	movl	$3551588, 7(%rsp)               # imm = 0x363164
	leaq	.L.str.1(%rip), %rbx
	movq	%rsp, %rsi
	movq	%rbx, %rdi
	xorl	%eax, %eax
	callq	printf@PLT
	leaq	16(%rsp), %rsi
	movq	%r14, 16(%rsp)
	movl	$3551588, 23(%rsp)              # imm = 0x363164
	movq	%rbx, %rdi
	xorl	%eax, %eax
	callq	printf@PLT
	leaq	32(%rsp), %rsi
	movq	%r14, 32(%rsp)
	movl	$3551588, 39(%rsp)              # imm = 0x363164
	movq	%rbx, %rdi
	xorl	%eax, %eax
	callq	printf@PLT
	leaq	48(%rsp), %rsi
	movq	%r14, 48(%rsp)
	movl	$3551588, 55(%rsp)              # imm = 0x363164
	movq	%rbx, %rdi
	xorl	%eax, %eax
	callq	printf@PLT
	leaq	64(%rsp), %rsi
	movq	%r14, 64(%rsp)
	movl	$3551588, 71(%rsp)              # imm = 0x363164
	movq	%rbx, %rdi
	xorl	%eax, %eax
	callq	printf@PLT
	leaq	80(%rsp), %rsi
	movq	%r14, 80(%rsp)
	movl	$3551588, 87(%rsp)              # imm = 0x363164
	movq	%rbx, %rdi
	xorl	%eax, %eax
	callq	printf@PLT
	leaq	96(%rsp), %rsi
	movq	%r14, 96(%rsp)
	movl	$3551588, 103(%rsp)             # imm = 0x363164
	movq	%rbx, %rdi
	xorl	%eax, %eax
	callq	printf@PLT
	leaq	112(%rsp), %rsi
	movq	%r14, 112(%rsp)
	movl	$3551588, 119(%rsp)             # imm = 0x363164
	movq	%rbx, %rdi
	xorl	%eax, %eax
	callq	printf@PLT
	leaq	128(%rsp), %rsi
	movq	%r14, 128(%rsp)
	movl	$3551588, 135(%rsp)             # imm = 0x363164
	movq	%rbx, %rdi
	xorl	%eax, %eax
	callq	printf@PLT
	leaq	144(%rsp), %rsi
	movq	%r14, 144(%rsp)
	movl	$3551588, 151(%rsp)             # imm = 0x363164
	movq	%rbx, %rdi
	xorl	%eax, %eax
	callq	printf@PLT
	movq	%r14, (%rsp)
	movl	$3420772, 7(%rsp)               # imm = 0x343264
	movq	%rsp, %rsi
	movq	%rbx, %rdi
	xorl	%eax, %eax
	callq	printf@PLT
	leaq	24(%rsp), %rsi
	movq	%r14, 24(%rsp)
	movl	$3420772, 31(%rsp)              # imm = 0x343264
	movq	%rbx, %rdi
	xorl	%eax, %eax
	callq	printf@PLT
	leaq	48(%rsp), %rsi
	movq	%r14, 48(%rsp)
	movl	$3420772, 55(%rsp)              # imm = 0x343264
	movq	%rbx, %rdi
	xorl	%eax, %eax
	callq	printf@PLT
	leaq	72(%rsp), %rsi
	movq	%r14, 72(%rsp)
	movl	$3420772, 79(%rsp)              # imm = 0x343264
	movq	%rbx, %rdi
	xorl	%eax, %eax
	callq	printf@PLT
	leaq	96(%rsp), %rsi
	movq	%r14, 96(%rsp)
	movl	$3420772, 103(%rsp)             # imm = 0x343264
	movq	%rbx, %rdi
	xorl	%eax, %eax
	callq	printf@PLT
	leaq	120(%rsp), %rsi
	movq	%r14, 120(%rsp)
	movl	$3420772, 127(%rsp)             # imm = 0x343264
	movq	%rbx, %rdi
	xorl	%eax, %eax
	callq	printf@PLT
	leaq	144(%rsp), %rsi
	movq	%r14, 144(%rsp)
	movl	$3420772, 151(%rsp)             # imm = 0x343264
	movq	%rbx, %rdi
	xorl	%eax, %eax
	callq	printf@PLT
	leaq	168(%rsp), %rsi
	movq	%r14, 168(%rsp)
	movl	$3420772, 175(%rsp)             # imm = 0x343264
	movq	%rbx, %rdi
	xorl	%eax, %eax
	callq	printf@PLT
	leaq	192(%rsp), %rsi
	movq	%r14, 192(%rsp)
	movl	$3420772, 199(%rsp)             # imm = 0x343264
	movq	%rbx, %rdi
	xorl	%eax, %eax
	callq	printf@PLT
	leaq	216(%rsp), %rsi
	movq	%r14, 216(%rsp)
	movl	$3420772, 223(%rsp)             # imm = 0x343264
	movq	%rbx, %rdi
	xorl	%eax, %eax
	callq	printf@PLT
	movq	%r14, (%rsp)
	movl	$3289956, 7(%rsp)               # imm = 0x323364
	movq	%rsp, %rsi
	movq	%rbx, %rdi
	xorl	%eax, %eax
	callq	printf@PLT
	leaq	32(%rsp), %rsi
	movq	%r14, 32(%rsp)
	movl	$3289956, 39(%rsp)              # imm = 0x323364
	movq	%rbx, %rdi
	xorl	%eax, %eax
	callq	printf@PLT
	leaq	64(%rsp), %rsi
	movq	%r14, 64(%rsp)
	movl	$3289956, 71(%rsp)              # imm = 0x323364
	movq	%rbx, %rdi
	xorl	%eax, %eax
	callq	printf@PLT
	leaq	96(%rsp), %rsi
	movq	%r14, 96(%rsp)
	movl	$3289956, 103(%rsp)             # imm = 0x323364
	movq	%rbx, %rdi
	xorl	%eax, %eax
	callq	printf@PLT
	leaq	128(%rsp), %rsi
	movq	%r14, 128(%rsp)
	movl	$3289956, 135(%rsp)             # imm = 0x323364
	movq	%rbx, %rdi
	xorl	%eax, %eax
	callq	printf@PLT
	leaq	160(%rsp), %rsi
	movq	%r14, 160(%rsp)
	movl	$3289956, 167(%rsp)             # imm = 0x323364
	movq	%rbx, %rdi
	xorl	%eax, %eax
	callq	printf@PLT
	leaq	192(%rsp), %rsi
	movq	%r14, 192(%rsp)
	movl	$3289956, 199(%rsp)             # imm = 0x323364
	movq	%rbx, %rdi
	xorl	%eax, %eax
	callq	printf@PLT
	leaq	224(%rsp), %rsi
	movq	%r14, 224(%rsp)
	movl	$3289956, 231(%rsp)             # imm = 0x323364
	movq	%rbx, %rdi
	xorl	%eax, %eax
	callq	printf@PLT
	leaq	256(%rsp), %rsi
	movq	%r14, 256(%rsp)
	movl	$3289956, 263(%rsp)             # imm = 0x323364
	movq	%rbx, %rdi
	xorl	%eax, %eax
	callq	printf@PLT
	leaq	288(%rsp), %rsi
	movq	%r14, 288(%rsp)
	movl	$3289956, 295(%rsp)             # imm = 0x323364
	movq	%rbx, %rdi
	xorl	%eax, %eax
	callq	printf@PLT
	movq	%r14, (%rsp)
	movl	$3159140, 7(%rsp)               # imm = 0x303464
	movq	%rsp, %rsi
	movq	%rbx, %rdi
	xorl	%eax, %eax
	callq	printf@PLT
	leaq	40(%rsp), %rsi
	movq	%r14, 40(%rsp)
	movl	$3159140, 47(%rsp)              # imm = 0x303464
	movq	%rbx, %rdi
	xorl	%eax, %eax
	callq	printf@PLT
	leaq	80(%rsp), %rsi
	movq	%r14, 80(%rsp)
	movl	$3159140, 87(%rsp)              # imm = 0x303464
	movq	%rbx, %rdi
	xorl	%eax, %eax
	callq	printf@PLT
	leaq	120(%rsp), %rsi
	movq	%r14, 120(%rsp)
	movl	$3159140, 127(%rsp)             # imm = 0x303464
	movq	%rbx, %rdi
	xorl	%eax, %eax
	callq	printf@PLT
	leaq	160(%rsp), %rsi
	movq	%r14, 160(%rsp)
	movl	$3159140, 167(%rsp)             # imm = 0x303464
	movq	%rbx, %rdi
	xorl	%eax, %eax
	callq	printf@PLT
	leaq	200(%rsp), %rsi
	movq	%r14, 200(%rsp)
	movl	$3159140, 207(%rsp)             # imm = 0x303464
	movq	%rbx, %rdi
	xorl	%eax, %eax
	callq	printf@PLT
	leaq	240(%rsp), %rsi
	movq	%r14, 240(%rsp)
	movl	$3159140, 247(%rsp)             # imm = 0x303464
	movq	%rbx, %rdi
	xorl	%eax, %eax
	callq	printf@PLT
	leaq	280(%rsp), %rsi
	movq	%r14, 280(%rsp)
	movl	$3159140, 287(%rsp)             # imm = 0x303464
	movq	%rbx, %rdi
	xorl	%eax, %eax
	callq	printf@PLT
	leaq	320(%rsp), %rsi
	movq	%r14, 320(%rsp)
	movl	$3159140, 327(%rsp)             # imm = 0x303464
	movq	%rbx, %rdi
	xorl	%eax, %eax
	callq	printf@PLT
	leaq	360(%rsp), %rsi
	movq	%r14, 360(%rsp)
	movl	$3159140, 367(%rsp)             # imm = 0x303464
	movq	%rbx, %rdi
	xorl	%eax, %eax
	callq	printf@PLT
	movq	%r14, (%rsp)
	movl	$3683428, 7(%rsp)               # imm = 0x383464
	movq	%rsp, %rsi
	movq	%rbx, %rdi
	xorl	%eax, %eax
	callq	printf@PLT
	leaq	48(%rsp), %rsi
	movq	%r14, 48(%rsp)
	movl	$3683428, 55(%rsp)              # imm = 0x383464
	movq	%rbx, %rdi
	xorl	%eax, %eax
	callq	printf@PLT
	leaq	96(%rsp), %rsi
	movq	%r14, 96(%rsp)
	movl	$3683428, 103(%rsp)             # imm = 0x383464
	movq	%rbx, %rdi
	xorl	%eax, %eax
	callq	printf@PLT
	leaq	144(%rsp), %rsi
	movq	%r14, 144(%rsp)
	movl	$3683428, 151(%rsp)             # imm = 0x383464
	movq	%rbx, %rdi
	xorl	%eax, %eax
	callq	printf@PLT
	leaq	192(%rsp), %rsi
	movq	%r14, 192(%rsp)
	movl	$3683428, 199(%rsp)             # imm = 0x383464
	movq	%rbx, %rdi
	xorl	%eax, %eax
	callq	printf@PLT
	leaq	240(%rsp), %rsi
	movq	%r14, 240(%rsp)
	movl	$3683428, 247(%rsp)             # imm = 0x383464
	movq	%rbx, %rdi
	xorl	%eax, %eax
	callq	printf@PLT
	leaq	288(%rsp), %rsi
	movq	%r14, 288(%rsp)
	movl	$3683428, 295(%rsp)             # imm = 0x383464
	movq	%rbx, %rdi
	xorl	%eax, %eax
	callq	printf@PLT
	leaq	336(%rsp), %rsi
	movq	%r14, 336(%rsp)
	movl	$3683428, 343(%rsp)             # imm = 0x383464
	movq	%rbx, %rdi
	xorl	%eax, %eax
	callq	printf@PLT
	leaq	384(%rsp), %rsi
	movq	%r14, 384(%rsp)
	movl	$3683428, 391(%rsp)             # imm = 0x383464
	movq	%rbx, %rdi
	xorl	%eax, %eax
	callq	printf@PLT
	leaq	432(%rsp), %rsi
	movq	%r14, 432(%rsp)
	movl	$3683428, 439(%rsp)             # imm = 0x383464
	movq	%rbx, %rdi
	xorl	%eax, %eax
	callq	printf@PLT
	movq	%r14, (%rsp)
	movl	$3552612, 7(%rsp)               # imm = 0x363564
	movq	%rsp, %rsi
	movq	%rbx, %rdi
	xorl	%eax, %eax
	callq	printf@PLT
	leaq	56(%rsp), %rsi
	movq	%r14, 56(%rsp)
	movl	$3552612, 63(%rsp)              # imm = 0x363564
	movq	%rbx, %rdi
	xorl	%eax, %eax
	callq	printf@PLT
	leaq	112(%rsp), %rsi
	movq	%r14, 112(%rsp)
	movl	$3552612, 119(%rsp)             # imm = 0x363564
	movq	%rbx, %rdi
	xorl	%eax, %eax
	callq	printf@PLT
	leaq	168(%rsp), %rsi
	movq	%r14, 168(%rsp)
	movl	$3552612, 175(%rsp)             # imm = 0x363564
	movq	%rbx, %rdi
	xorl	%eax, %eax
	callq	printf@PLT
	leaq	224(%rsp), %rsi
	movq	%r14, 224(%rsp)
	movl	$3552612, 231(%rsp)             # imm = 0x363564
	movq	%rbx, %rdi
	xorl	%eax, %eax
	callq	printf@PLT
	leaq	280(%rsp), %rsi
	movq	%r14, 280(%rsp)
	movl	$3552612, 287(%rsp)             # imm = 0x363564
	movq	%rbx, %rdi
	xorl	%eax, %eax
	callq	printf@PLT
	leaq	336(%rsp), %rsi
	movq	%r14, 336(%rsp)
	movl	$3552612, 343(%rsp)             # imm = 0x363564
	movq	%rbx, %rdi
	xorl	%eax, %eax
	callq	printf@PLT
	leaq	392(%rsp), %rsi
	movq	%r14, 392(%rsp)
	movl	$3552612, 399(%rsp)             # imm = 0x363564
	movq	%rbx, %rdi
	xorl	%eax, %eax
	callq	printf@PLT
	leaq	448(%rsp), %rsi
	movq	%r14, 448(%rsp)
	movl	$3552612, 455(%rsp)             # imm = 0x363564
	movq	%rbx, %rdi
	xorl	%eax, %eax
	callq	printf@PLT
	leaq	504(%rsp), %rsi
	movq	%r14, 504(%rsp)
	movl	$3552612, 511(%rsp)             # imm = 0x363564
	movq	%rbx, %rdi
	xorl	%eax, %eax
	callq	printf@PLT
	leaq	.Lstr(%rip), %rdi
	callq	puts@PLT
	xorl	%eax, %eax
	addq	$568, %rsp                      # imm = 0x238
	.cfi_def_cfa_offset 24
	popq	%rbx
	.cfi_def_cfa_offset 16
	popq	%r14
	.cfi_def_cfa_offset 8
	retq
.Lfunc_end6:
	.size	main, .Lfunc_end6-main
	.cfi_endproc
                                        # -- End function
	.type	.L.str,@object                  # @.str
	.section	.rodata.str1.1,"aMS",@progbits,1
.L.str:
	.asciz	"Modified16"
	.size	.L.str, 11

	.type	.L.str.1,@object                # @.str.1
.L.str.1:
	.asciz	"%s"
	.size	.L.str.1, 3

	.type	.L.str.2,@object                # @.str.2
.L.str.2:
	.asciz	"Modified24"
	.size	.L.str.2, 11

	.type	.L.str.3,@object                # @.str.3
.L.str.3:
	.asciz	"Modified32"
	.size	.L.str.3, 11

	.type	.L.str.4,@object                # @.str.4
.L.str.4:
	.asciz	"Modified40"
	.size	.L.str.4, 11

	.type	.L.str.5,@object                # @.str.5
.L.str.5:
	.asciz	"Modified48"
	.size	.L.str.5, 11

	.type	.L.str.6,@object                # @.str.6
.L.str.6:
	.asciz	"Modified56"
	.size	.L.str.6, 11

	.type	.Lstr,@object                   # @str
.Lstr:
	.asciz	"All arrays modified."
	.size	.Lstr, 21

	.ident	"clang version 17.0.0 (https://github.com/llvm/llvm-project.git 88bf774c565080e30e0a073676c316ab175303af)"
	.section	".note.GNU-stack","",@progbits
	.addrsig
